; Function Attrs: mustprogress norecurse uwtable
define internal fastcc void @_ZL20showHumanReadableImgRKNSt7__cxx1112basic_stringIcSt11char_traitsIcESaIcEEERKN2cv3MatE(ptr noundef nonnull align 8 dereferenceable(32) %0, ptr noundef nonnull align 8 dereferenceable(96) %1) unnamed_addr #3 personality ptr @__gxx_personality_v0 {
  %3 = alloca %"class.cv::_InputArray", align 8
  %4 = alloca %"class.cv::_OutputArray", align 8
  %5 = alloca %"class.cv::Mat", align 8
  %6 = alloca %"class.cv::_OutputArray", align 8
  %7 = alloca %"class.cv::_InputArray", align 8
  call void @llvm.lifetime.start.p0(i64 96, ptr nonnull %5) #18
  call void @_ZN2cv3MatC1Ev(ptr noundef nonnull align 8 dereferenceable(96) %5) #18
  call void @llvm.lifetime.start.p0(i64 24, ptr nonnull %6) #18
  %8 = getelementptr inbounds nuw i8, ptr %6, i64 8
  %9 = getelementptr inbounds nuw i8, ptr %6, i64 16
  store i64 0, ptr %9, align 8
  store i32 33619968, ptr %6, align 8, !tbaa !42
  store ptr %5, ptr %8, align 8, !tbaa !45
  %10 = load i32, ptr %1, align 8, !tbaa !51
  %11 = and i32 %10, 4088
  invoke void @_ZNK2cv3Mat9convertToERKNS_12_OutputArrayEidd(ptr noundef nonnull align 8 dereferenceable(96) %1, ptr noundef nonnull align 8 dereferenceable(24) %6, i32 noundef %11, double noundef 1.000000e+00, double noundef 0.000000e+00)
          to label %12 unwind label %33

12:                                               ; preds = %2
  call void @llvm.lifetime.end.p0(i64 24, ptr nonnull %6) #18
  %13 = getelementptr inbounds nuw i8, ptr %5, i64 12
  %14 = load i32, ptr %13, align 4, !tbaa !58
  %15 = sitofp i32 %14 to double
  %16 = fdiv double 1.000000e+03, %15
  %17 = getelementptr inbounds nuw i8, ptr %5, i64 8
  %18 = load i32, ptr %17, align 8, !tbaa !59
  %19 = sitofp i32 %18 to double
  %20 = fdiv double 5.000000e+02, %19
  %21 = fcmp olt double %20, %16
  %.sroa.speculated12.i = select i1 %21, double %20, double %16
  %22 = fcmp ogt double %.sroa.speculated12.i, 1.000000e+00
  %.sroa.speculated.i = select i1 %22, double 1.000000e+00, double %.sroa.speculated12.i
  call void @llvm.lifetime.start.p0(i64 24, ptr nonnull %3) #18
  %23 = getelementptr inbounds nuw i8, ptr %3, i64 16
  store i32 0, ptr %23, align 8, !tbaa !46
  %24 = getelementptr inbounds nuw i8, ptr %3, i64 20
  store i32 0, ptr %24, align 4, !tbaa !47
  store i32 16842752, ptr %3, align 8, !tbaa !42
  %25 = getelementptr inbounds nuw i8, ptr %3, i64 8
  store ptr %5, ptr %25, align 8, !tbaa !45
  call void @llvm.lifetime.start.p0(i64 24, ptr nonnull %4) #18
  %26 = getelementptr inbounds nuw i8, ptr %4, i64 8
  %27 = getelementptr inbounds nuw i8, ptr %4, i64 16
  store i64 0, ptr %27, align 8
  store i32 33619968, ptr %4, align 8, !tbaa !42
  store ptr %5, ptr %26, align 8, !tbaa !45
  invoke void @_ZN2cv6resizeERKNS_11_InputArrayERKNS_12_OutputArrayENS_5Size_IiEEddi(ptr noundef nonnull align 8 dereferenceable(24) %3, ptr noundef nonnull align 8 dereferenceable(24) %4, i64 0, double noundef %.sroa.speculated.i, double noundef %.sroa.speculated.i, i32 noundef 5)
          to label %28 unwind label %35

28:                                               ; preds = %12
  call void @llvm.lifetime.end.p0(i64 24, ptr nonnull %4) #18
  call void @llvm.lifetime.end.p0(i64 24, ptr nonnull %3) #18
  call void @llvm.lifetime.start.p0(i64 24, ptr nonnull %7) #18
  %29 = getelementptr inbounds nuw i8, ptr %7, i64 16
  store i32 0, ptr %29, align 8, !tbaa !46
  %30 = getelementptr inbounds nuw i8, ptr %7, i64 20
  store i32 0, ptr %30, align 4, !tbaa !47
  store i32 16842752, ptr %7, align 8, !tbaa !42
  %31 = getelementptr inbounds nuw i8, ptr %7, i64 8
  store ptr %5, ptr %31, align 8, !tbaa !45
  invoke void @_ZN2cv6imshowERKNSt7__cxx1112basic_stringIcSt11char_traitsIcESaIcEEERKNS_11_InputArrayE(ptr noundef nonnull align 8 dereferenceable(32) %0, ptr noundef nonnull align 8 dereferenceable(24) %7)
          to label %32 unwind label %37

32:                                               ; preds = %28
  call void @llvm.lifetime.end.p0(i64 24, ptr nonnull %7) #18
  call void @_ZN2cv3MatD1Ev(ptr noundef nonnull align 8 dereferenceable(96) %5) #18
  call void @llvm.lifetime.end.p0(i64 96, ptr nonnull %5) #18
  ret void

33:                                               ; preds = %2
  %34 = landingpad { ptr, i32 }
          cleanup
  call void @llvm.lifetime.end.p0(i64 24, ptr nonnull %6) #18
  br label %39

35:                                               ; preds = %12
  %36 = landingpad { ptr, i32 }
          cleanup
  br label %39

37:                                               ; preds = %28
  %38 = landingpad { ptr, i32 }
          cleanup
  call void @llvm.lifetime.end.p0(i64 24, ptr nonnull %7) #18
  br label %39

39:                                               ; preds = %37, %35, %33
  %.pn8.pn = phi { ptr, i32 } [ %38, %37 ], [ %36, %35 ], [ %34, %33 ]
  call void @_ZN2cv3MatD1Ev(ptr noundef nonnull align 8 dereferenceable(96) %5) #18
  call void @llvm.lifetime.end.p0(i64 96, ptr nonnull %5) #18
  resume { ptr, i32 } %.pn8.pn
}